; Function Attrs: mustprogress uwtable
define void @_ZNK6casadi8External15codegen_releaseERNS_13CodeGeneratorE(ptr noundef nonnull align 8 dereferenceable(1520) %0, ptr noundef nonnull align 8 dereferenceable(3289) %1) unnamed_addr #3 align 2 {
  %3 = getelementptr inbounds nuw i8, ptr %0, i64 496
  %4 = load ptr, ptr %3, align 8, !tbaa !192
  %.not = icmp eq ptr %4, null
  br i1 %.not, label %9, label %5

5:                                                ; preds = %2
  %6 = getelementptr inbounds nuw i8, ptr %0, i64 24
  %7 = tail call noundef nonnull align 8 dereferenceable(3289) ptr @_ZN6casadi13CodeGeneratorlsERKNSt7__cxx1112basic_stringIcSt11char_traitsIcESaIcEEE(ptr noundef nonnull align 8 dereferenceable(3289) %1, ptr noundef nonnull align 8 dereferenceable(32) %6)
  %8 = tail call noundef nonnull align 8 dereferenceable(3289) ptr @_ZN6casadi13CodeGeneratorlsIPKcEERS0_T_(ptr noundef nonnull align 8 dereferenceable(3289) %7, ptr noundef nonnull @.str.74)
  br label %9

9:                                                ; preds = %5, %2
  ret void
}